; ModuleID = '36/293.c'
source_filename = "36/293.c"
target datalayout = "e-m:e-p270:32:32-p271:32:32-p272:64:64-i64:64-f80:128-n8:16:32:64-S128"
target triple = "x86_64-pc-linux-gnu"

@.str = private unnamed_addr constant [6 x i8] c"%s %s\00", align 1
@.str.1 = private unnamed_addr constant [3 x i8] c"NO\00", align 1
@.str.2 = private unnamed_addr constant [4 x i8] c"YES\00", align 1

; Function Attrs: noinline nounwind uwtable
define dso_local void @main() #0 {
  %1 = alloca [1000 x i8], align 16
  %2 = alloca [1000 x i8], align 16
  %3 = alloca [1000 x i8], align 16
  %4 = alloca [1000 x i8], align 16
  %5 = alloca i32, align 4
  %6 = alloca i32, align 4
  %7 = alloca i32, align 4
  %8 = alloca i32, align 4
  %9 = alloca i32, align 4
  %10 = bitcast [1000 x i8]* %3 to i8*
  call void @llvm.memset.p0i8.i64(i8* align 16 %10, i8 0, i64 1000, i1 false)
  %11 = bitcast [1000 x i8]* %4 to i8*
  call void @llvm.memset.p0i8.i64(i8* align 16 %11, i8 0, i64 1000, i1 false)
  %12 = getelementptr inbounds [1000 x i8], [1000 x i8]* %1, i64 0, i64 0
  %13 = getelementptr inbounds [1000 x i8], [1000 x i8]* %2, i64 0, i64 0
  %14 = call i32 (i8*, ...) @__isoc99_scanf(i8* getelementptr inbounds ([6 x i8], [6 x i8]* @.str, i64 0, i64 0), i8* %12, i8* %13)
  %15 = getelementptr inbounds [1000 x i8], [1000 x i8]* %1, i64 0, i64 0
  %16 = call i64 @strlen(i8* %15) #4
  %17 = trunc i64 %16 to i32
  store i32 %17, i32* %5, align 4
  %18 = getelementptr inbounds [1000 x i8], [1000 x i8]* %2, i64 0, i64 0
  %19 = call i64 @strlen(i8* %18) #4
  %20 = trunc i64 %19 to i32
  store i32 %20, i32* %6, align 4
  store i32 0, i32* %7, align 4
  br label %21

21:                                               ; preds = %68, %0
  %22 = load i32, i32* %7, align 4
  %23 = load i32, i32* %5, align 4
  %24 = sub nsw i32 %23, 1
  %25 = icmp sle i32 %22, %24
  br i1 %25, label %26, label %71

26:                                               ; preds = %21
  %27 = load i32, i32* %7, align 4
  store i32 %27, i32* %8, align 4
  br label %28

28:                                               ; preds = %64, %26
  %29 = load i32, i32* %8, align 4
  %30 = load i32, i32* %5, align 4
  %31 = sub nsw i32 %30, 1
  %32 = icmp sle i32 %29, %31
  br i1 %32, label %33, label %67

33:                                               ; preds = %28
  %34 = load i32, i32* %8, align 4
  %35 = sext i32 %34 to i64
  %36 = getelementptr inbounds [1000 x i8], [1000 x i8]* %1, i64 0, i64 %35
  %37 = load i8, i8* %36, align 1
  %38 = sext i8 %37 to i32
  %39 = load i32, i32* %7, align 4
  %40 = sext i32 %39 to i64
  %41 = getelementptr inbounds [1000 x i8], [1000 x i8]* %1, i64 0, i64 %40
  %42 = load i8, i8* %41, align 1
  %43 = sext i8 %42 to i32
  %44 = icmp slt i32 %38, %43
  br i1 %44, label %45, label %63

45:                                               ; preds = %33
  %46 = load i32, i32* %8, align 4
  %47 = sext i32 %46 to i64
  %48 = getelementptr inbounds [1000 x i8], [1000 x i8]* %1, i64 0, i64 %47
  %49 = load i8, i8* %48, align 1
  %50 = sext i8 %49 to i32
  store i32 %50, i32* %9, align 4
  %51 = load i32, i32* %7, align 4
  %52 = sext i32 %51 to i64
  %53 = getelementptr inbounds [1000 x i8], [1000 x i8]* %1, i64 0, i64 %52
  %54 = load i8, i8* %53, align 1
  %55 = load i32, i32* %8, align 4
  %56 = sext i32 %55 to i64
  %57 = getelementptr inbounds [1000 x i8], [1000 x i8]* %1, i64 0, i64 %56
  store i8 %54, i8* %57, align 1
  %58 = load i32, i32* %9, align 4
  %59 = trunc i32 %58 to i8
  %60 = load i32, i32* %7, align 4
  %61 = sext i32 %60 to i64
  %62 = getelementptr inbounds [1000 x i8], [1000 x i8]* %1, i64 0, i64 %61
  store i8 %59, i8* %62, align 1
  br label %63

63:                                               ; preds = %45, %33
  br label %64

64:                                               ; preds = %63
  %65 = load i32, i32* %8, align 4
  %66 = add nsw i32 %65, 1
  store i32 %66, i32* %8, align 4
  br label %28

67:                                               ; preds = %28
  br label %68

68:                                               ; preds = %67
  %69 = load i32, i32* %7, align 4
  %70 = add nsw i32 %69, 1
  store i32 %70, i32* %7, align 4
  br label %21

71:                                               ; preds = %21
  store i32 0, i32* %7, align 4
  br label %72

72:                                               ; preds = %119, %71
  %73 = load i32, i32* %7, align 4
  %74 = load i32, i32* %6, align 4
  %75 = sub nsw i32 %74, 1
  %76 = icmp sle i32 %73, %75
  br i1 %76, label %77, label %122

77:                                               ; preds = %72
  %78 = load i32, i32* %7, align 4
  store i32 %78, i32* %8, align 4
  br label %79

79:                                               ; preds = %115, %77
  %80 = load i32, i32* %8, align 4
  %81 = load i32, i32* %6, align 4
  %82 = sub nsw i32 %81, 1
  %83 = icmp sle i32 %80, %82
  br i1 %83, label %84, label %118

84:                                               ; preds = %79
  %85 = load i32, i32* %8, align 4
  %86 = sext i32 %85 to i64
  %87 = getelementptr inbounds [1000 x i8], [1000 x i8]* %2, i64 0, i64 %86
  %88 = load i8, i8* %87, align 1
  %89 = sext i8 %88 to i32
  %90 = load i32, i32* %7, align 4
  %91 = sext i32 %90 to i64
  %92 = getelementptr inbounds [1000 x i8], [1000 x i8]* %2, i64 0, i64 %91
  %93 = load i8, i8* %92, align 1
  %94 = sext i8 %93 to i32
  %95 = icmp slt i32 %89, %94
  br i1 %95, label %96, label %114

96:                                               ; preds = %84
  %97 = load i32, i32* %8, align 4
  %98 = sext i32 %97 to i64
  %99 = getelementptr inbounds [1000 x i8], [1000 x i8]* %2, i64 0, i64 %98
  %100 = load i8, i8* %99, align 1
  %101 = sext i8 %100 to i32
  store i32 %101, i32* %9, align 4
  %102 = load i32, i32* %7, align 4
  %103 = sext i32 %102 to i64
  %104 = getelementptr inbounds [1000 x i8], [1000 x i8]* %2, i64 0, i64 %103
  %105 = load i8, i8* %104, align 1
  %106 = load i32, i32* %8, align 4
  %107 = sext i32 %106 to i64
  %108 = getelementptr inbounds [1000 x i8], [1000 x i8]* %2, i64 0, i64 %107
  store i8 %105, i8* %108, align 1
  %109 = load i32, i32* %9, align 4
  %110 = trunc i32 %109 to i8
  %111 = load i32, i32* %7, align 4
  %112 = sext i32 %111 to i64
  %113 = getelementptr inbounds [1000 x i8], [1000 x i8]* %2, i64 0, i64 %112
  store i8 %110, i8* %113, align 1
  br label %114

114:                                              ; preds = %96, %84
  br label %115

115:                                              ; preds = %114
  %116 = load i32, i32* %8, align 4
  %117 = add nsw i32 %116, 1
  store i32 %117, i32* %8, align 4
  br label %79

118:                                              ; preds = %79
  br label %119

119:                                              ; preds = %118
  %120 = load i32, i32* %7, align 4
  %121 = add nsw i32 %120, 1
  store i32 %121, i32* %7, align 4
  br label %72

122:                                              ; preds = %72
  %123 = load i32, i32* %5, align 4
  %124 = load i32, i32* %6, align 4
  %125 = icmp ne i32 %123, %124
  br i1 %125, label %126, label %128

126:                                              ; preds = %122
  %127 = call i32 (i8*, ...) @printf(i8* getelementptr inbounds ([3 x i8], [3 x i8]* @.str.1, i64 0, i64 0))
  br label %161

128:                                              ; preds = %122
  store i32 0, i32* %7, align 4
  store i32 0, i32* %9, align 4
  br label %129

129:                                              ; preds = %150, %128
  %130 = load i32, i32* %7, align 4
  %131 = load i32, i32* %5, align 4
  %132 = sub nsw i32 %131, 1
  %133 = icmp sle i32 %130, %132
  br i1 %133, label %134, label %153

134:                                              ; preds = %129
  %135 = load i32, i32* %7, align 4
  %136 = sext i32 %135 to i64
  %137 = getelementptr inbounds [1000 x i8], [1000 x i8]* %1, i64 0, i64 %136
  %138 = load i8, i8* %137, align 1
  %139 = sext i8 %138 to i32
  %140 = load i32, i32* %7, align 4
  %141 = sext i32 %140 to i64
  %142 = getelementptr inbounds [1000 x i8], [1000 x i8]* %2, i64 0, i64 %141
  %143 = load i8, i8* %142, align 1
  %144 = sext i8 %143 to i32
  %145 = icmp ne i32 %139, %144
  br i1 %145, label %146, label %149

146:                                              ; preds = %134
  %147 = load i32, i32* %9, align 4
  %148 = add nsw i32 %147, 1
  store i32 %148, i32* %9, align 4
  br label %149

149:                                              ; preds = %146, %134
  br label %150

150:                                              ; preds = %149
  %151 = load i32, i32* %7, align 4
  %152 = add nsw i32 %151, 1
  store i32 %152, i32* %7, align 4
  br label %129

153:                                              ; preds = %129
  %154 = load i32, i32* %9, align 4
  %155 = icmp eq i32 %154, 0
  br i1 %155, label %156, label %158

156:                                              ; preds = %153
  %157 = call i32 (i8*, ...) @printf(i8* getelementptr inbounds ([4 x i8], [4 x i8]* @.str.2, i64 0, i64 0))
  br label %160

158:                                              ; preds = %153
  %159 = call i32 (i8*, ...) @printf(i8* getelementptr inbounds ([3 x i8], [3 x i8]* @.str.1, i64 0, i64 0))
  br label %160

160:                                              ; preds = %158, %156
  br label %161

161:                                              ; preds = %160, %126
  ret void
}

; Function Attrs: argmemonly nounwind willreturn
declare void @llvm.memset.p0i8.i64(i8* nocapture writeonly, i8, i64, i1 immarg) #1

declare dso_local i32 @__isoc99_scanf(i8*, ...) #2

; Function Attrs: nounwind readonly
declare dso_local i64 @strlen(i8*) #3

declare dso_local i32 @printf(i8*, ...) #2


!llvm.module.flags = !{!0}
!llvm.ident = !{!1}

!0 = !{i32 1, !"wchar_size", i32 4}
!1 = !{!"clang version 10.0.0-4ubuntu1 "}
